; ModuleID = '22/595.c'
source_filename = "22/595.c"
target datalayout = "e-m:e-p270:32:32-p271:32:32-p272:64:64-i64:64-f80:128-n8:16:32:64-S128"
target triple = "x86_64-pc-linux-gnu"

@.str = private unnamed_addr constant [4 x i8] c"%d\0A\00", align 1
@.str.1 = private unnamed_addr constant [4 x i8] c"No\0A\00", align 1

; Function Attrs: noinline nounwind uwtable
define dso_local i32 @main() #0 {
  %1 = alloca i32, align 4
  %2 = alloca [301 x i32], align 16
  %3 = alloca i32, align 4
  %4 = alloca i32, align 4
  %5 = alloca i32, align 4
  %6 = alloca i32, align 4
  %7 = alloca [300 x i32], align 16
  %8 = alloca i32, align 4
  %9 = alloca i32, align 4
  %10 = alloca i32, align 4
  %11 = alloca [2000 x i8], align 16
  store i32 0, i32* %1, align 4
  %12 = bitcast [301 x i32]* %2 to i8*
  call void @llvm.memset.p0i8.i64(i8* align 16 %12, i8 0, i64 1204, i1 false)
  store i32 0, i32* %6, align 4
  %13 = bitcast [300 x i32]* %7 to i8*
  call void @llvm.memset.p0i8.i64(i8* align 16 %13, i8 0, i64 1200, i1 false)
  store i32 -1, i32* %9, align 4
  %14 = getelementptr inbounds [2000 x i8], [2000 x i8]* %11, i64 0, i64 0
  %15 = call i32 (i8*, ...) bitcast (i32 (...)* @gets to i32 (i8*, ...)*)(i8* %14)
  %16 = getelementptr inbounds [300 x i32], [300 x i32]* %7, i64 0, i64 0
  store i32 0, i32* %16, align 16
  store i32 1, i32* %3, align 4
  store i32 1, i32* %4, align 4
  br label %17

17:                                               ; preds = %40, %0
  %18 = load i32, i32* %3, align 4
  %19 = sext i32 %18 to i64
  %20 = getelementptr inbounds [2000 x i8], [2000 x i8]* %11, i64 0, i64 0
  %21 = call i64 @strlen(i8* %20) #4
  %22 = sub i64 %21, 1
  %23 = icmp ule i64 %19, %22
  br i1 %23, label %24, label %43

24:                                               ; preds = %17
  %25 = load i32, i32* %3, align 4
  %26 = sext i32 %25 to i64
  %27 = getelementptr inbounds [2000 x i8], [2000 x i8]* %11, i64 0, i64 %26
  %28 = load i8, i8* %27, align 1
  %29 = sext i8 %28 to i32
  %30 = icmp eq i32 %29, 44
  br i1 %30, label %31, label %39

31:                                               ; preds = %24
  %32 = load i32, i32* %3, align 4
  %33 = add nsw i32 %32, 1
  %34 = load i32, i32* %4, align 4
  %35 = sext i32 %34 to i64
  %36 = getelementptr inbounds [300 x i32], [300 x i32]* %7, i64 0, i64 %35
  store i32 %33, i32* %36, align 4
  %37 = load i32, i32* %4, align 4
  %38 = add nsw i32 %37, 1
  store i32 %38, i32* %4, align 4
  br label %39

39:                                               ; preds = %31, %24
  br label %40

40:                                               ; preds = %39
  %41 = load i32, i32* %3, align 4
  %42 = add nsw i32 %41, 1
  store i32 %42, i32* %3, align 4
  br label %17

43:                                               ; preds = %17
  %44 = getelementptr inbounds [2000 x i8], [2000 x i8]* %11, i64 0, i64 0
  %45 = call i64 @strlen(i8* %44) #4
  %46 = add i64 %45, 1
  %47 = trunc i64 %46 to i32
  %48 = load i32, i32* %4, align 4
  %49 = sext i32 %48 to i64
  %50 = getelementptr inbounds [300 x i32], [300 x i32]* %7, i64 0, i64 %49
  store i32 %47, i32* %50, align 4
  store i32 0, i32* %3, align 4
  br label %51

51:                                               ; preds = %90, %43
  %52 = load i32, i32* %3, align 4
  %53 = load i32, i32* %4, align 4
  %54 = sub nsw i32 %53, 1
  %55 = icmp sle i32 %52, %54
  br i1 %55, label %56, label %93

56:                                               ; preds = %51
  %57 = load i32, i32* %3, align 4
  %58 = sext i32 %57 to i64
  %59 = getelementptr inbounds [300 x i32], [300 x i32]* %7, i64 0, i64 %58
  %60 = load i32, i32* %59, align 4
  store i32 %60, i32* %5, align 4
  br label %61

61:                                               ; preds = %86, %56
  %62 = load i32, i32* %5, align 4
  %63 = load i32, i32* %3, align 4
  %64 = add nsw i32 %63, 1
  %65 = sext i32 %64 to i64
  %66 = getelementptr inbounds [300 x i32], [300 x i32]* %7, i64 0, i64 %65
  %67 = load i32, i32* %66, align 4
  %68 = sub nsw i32 %67, 2
  %69 = icmp sle i32 %62, %68
  br i1 %69, label %70, label %89

70:                                               ; preds = %61
  %71 = load i32, i32* %5, align 4
  %72 = sext i32 %71 to i64
  %73 = getelementptr inbounds [2000 x i8], [2000 x i8]* %11, i64 0, i64 %72
  %74 = load i8, i8* %73, align 1
  %75 = sext i8 %74 to i32
  %76 = sub nsw i32 %75, 48
  %77 = load i32, i32* %3, align 4
  %78 = sext i32 %77 to i64
  %79 = getelementptr inbounds [301 x i32], [301 x i32]* %2, i64 0, i64 %78
  %80 = load i32, i32* %79, align 4
  %81 = mul nsw i32 10, %80
  %82 = add nsw i32 %76, %81
  %83 = load i32, i32* %3, align 4
  %84 = sext i32 %83 to i64
  %85 = getelementptr inbounds [301 x i32], [301 x i32]* %2, i64 0, i64 %84
  store i32 %82, i32* %85, align 4
  br label %86

86:                                               ; preds = %70
  %87 = load i32, i32* %5, align 4
  %88 = add nsw i32 %87, 1
  store i32 %88, i32* %5, align 4
  br label %61

89:                                               ; preds = %61
  br label %90

90:                                               ; preds = %89
  %91 = load i32, i32* %3, align 4
  %92 = add nsw i32 %91, 1
  store i32 %92, i32* %3, align 4
  br label %51

93:                                               ; preds = %51
  %94 = getelementptr inbounds [301 x i32], [301 x i32]* %2, i64 0, i64 0
  %95 = load i32, i32* %94, align 16
  store i32 %95, i32* %8, align 4
  store i32 1, i32* %3, align 4
  br label %96

96:                                               ; preds = %136, %93
  %97 = load i32, i32* %3, align 4
  %98 = load i32, i32* %4, align 4
  %99 = sub nsw i32 %98, 1
  %100 = icmp sle i32 %97, %99
  br i1 %100, label %101, label %139

101:                                              ; preds = %96
  %102 = load i32, i32* %3, align 4
  %103 = sext i32 %102 to i64
  %104 = getelementptr inbounds [301 x i32], [301 x i32]* %2, i64 0, i64 %103
  %105 = load i32, i32* %104, align 4
  %106 = load i32, i32* %8, align 4
  %107 = icmp sgt i32 %105, %106
  br i1 %107, label %108, label %115

108:                                              ; preds = %101
  %109 = load i32, i32* %8, align 4
  store i32 %109, i32* %10, align 4
  %110 = load i32, i32* %3, align 4
  %111 = sext i32 %110 to i64
  %112 = getelementptr inbounds [301 x i32], [301 x i32]* %2, i64 0, i64 %111
  %113 = load i32, i32* %112, align 4
  store i32 %113, i32* %8, align 4
  %114 = load i32, i32* %10, align 4
  store i32 %114, i32* %9, align 4
  br label %135

115:                                              ; preds = %101
  %116 = load i32, i32* %3, align 4
  %117 = sext i32 %116 to i64
  %118 = getelementptr inbounds [301 x i32], [301 x i32]* %2, i64 0, i64 %117
  %119 = load i32, i32* %118, align 4
  %120 = load i32, i32* %8, align 4
  %121 = icmp slt i32 %119, %120
  br i1 %121, label %122, label %134

122:                                              ; preds = %115
  %123 = load i32, i32* %3, align 4
  %124 = sext i32 %123 to i64
  %125 = getelementptr inbounds [301 x i32], [301 x i32]* %2, i64 0, i64 %124
  %126 = load i32, i32* %125, align 4
  %127 = load i32, i32* %9, align 4
  %128 = icmp sgt i32 %126, %127
  br i1 %128, label %129, label %134

129:                                              ; preds = %122
  %130 = load i32, i32* %3, align 4
  %131 = sext i32 %130 to i64
  %132 = getelementptr inbounds [301 x i32], [301 x i32]* %2, i64 0, i64 %131
  %133 = load i32, i32* %132, align 4
  store i32 %133, i32* %9, align 4
  br label %134

134:                                              ; preds = %129, %122, %115
  br label %135

135:                                              ; preds = %134, %108
  br label %136

136:                                              ; preds = %135
  %137 = load i32, i32* %3, align 4
  %138 = add nsw i32 %137, 1
  store i32 %138, i32* %3, align 4
  br label %96

139:                                              ; preds = %96
  %140 = load i32, i32* %9, align 4
  %141 = icmp sge i32 %140, 0
  br i1 %141, label %142, label %145

142:                                              ; preds = %139
  %143 = load i32, i32* %9, align 4
  %144 = call i32 (i8*, ...) @printf(i8* getelementptr inbounds ([4 x i8], [4 x i8]* @.str, i64 0, i64 0), i32 %143)
  br label %147

145:                                              ; preds = %139
  %146 = call i32 (i8*, ...) @printf(i8* getelementptr inbounds ([4 x i8], [4 x i8]* @.str.1, i64 0, i64 0))
  br label %147

147:                                              ; preds = %145, %142
  ret i32 0
}

; Function Attrs: argmemonly nounwind willreturn
declare void @llvm.memset.p0i8.i64(i8* nocapture writeonly, i8, i64, i1 immarg) #1

declare dso_local i32 @gets(...) #2

; Function Attrs: nounwind readonly
declare dso_local i64 @strlen(i8*) #3

declare dso_local i32 @printf(i8*, ...) #2


!llvm.module.flags = !{!0}
!llvm.ident = !{!1}

!0 = !{i32 1, !"wchar_size", i32 4}
!1 = !{!"clang version 10.0.0-4ubuntu1 "}
